target datalayout = "e-m:e-p270:32:32-p271:32:32-p272:64:64-i64:64-i128:128-f80:128-n8:16:32:64-S128"
target triple = "x86_64-pc-linux-gnu"

%struct.rb_data_type_struct = type { ptr, %struct.anon, ptr, ptr, i64 }
%struct.anon = type { ptr, ptr, ptr, ptr, [1 x ptr] }
%struct.pkcs7_st = type { ptr, i64, i32, i32, ptr, %union.anon, %struct.PKCS7_CTX_st }
%union.anon = type { ptr }
%struct.PKCS7_CTX_st = type { ptr, ptr }
%struct.pkcs7_signedandenveloped_st = type { ptr, ptr, ptr, ptr, ptr, ptr, ptr }
%struct.pkcs7_signed_st = type { ptr, ptr, ptr, ptr, ptr, ptr }

@ossl_pkcs7_type = internal constant %struct.rb_data_type_struct { ptr @.str.53, %struct.anon { ptr null, ptr @ossl_pkcs7_free, ptr null, ptr null, [1 x ptr] zeroinitializer }, ptr null, ptr null, i64 33 }, align 8
@rb_eRuntimeError = external global i64, align 8
@.str.1 = private unnamed_addr constant [26 x i8] c"PKCS7 wasn't initialized.\00", align 1
@ossl_pkcs7_set_certificates.rbimpl_id = internal global i64 0, align 8
@.str.81 = private unnamed_addr constant [5 x i8] c"each\00", align 1

; Function Attrs: inlinehint nounwind sspstrong willreturn memory(read) uwtable
define internal i64 @rb_intern_const(ptr noundef nonnull %0) #8 {
  %2 = alloca ptr, align 8
  %3 = alloca i64, align 8
  store ptr %0, ptr %2, align 8, !tbaa !66
  call void @llvm.lifetime.start.p0(i64 8, ptr %3) #16
  %4 = load ptr, ptr %2, align 8, !tbaa !66
  %5 = call i64 @strlen(ptr noundef %4) #20
  store i64 %5, ptr %3, align 8, !tbaa !11
  %6 = load ptr, ptr %2, align 8, !tbaa !66
  %7 = load i64, ptr %3, align 8, !tbaa !11
  %8 = call i64 @rb_intern2(ptr noundef %6, i64 noundef %7)
  call void @llvm.lifetime.end.p0(i64 8, ptr %3) #16
  ret i64 %8
}

; Function Attrs: inlinehint nounwind sspstrong memory(argmem: readwrite, inaccessiblemem: readwrite) uwtable
define internal i64 @rbimpl_intern_const(ptr noundef nonnull %0, ptr noundef nonnull %1) #15 {
  %3 = alloca ptr, align 8
  %4 = alloca ptr, align 8
  store ptr %0, ptr %3, align 8, !tbaa !22
  store ptr %1, ptr %4, align 8, !tbaa !66
  br label %5

5:                                                ; preds = %10, %2
  %6 = load ptr, ptr %3, align 8, !tbaa !22
  %7 = load i64, ptr %6, align 8, !tbaa !11
  %8 = icmp ne i64 %7, 0
  %9 = xor i1 %8, true
  br i1 %9, label %10, label %14

10:                                               ; preds = %5
  %11 = load ptr, ptr %4, align 8, !tbaa !66
  %12 = call i64 @rb_intern_const(ptr noundef %11) #20
  %13 = load ptr, ptr %3, align 8, !tbaa !22
  store i64 %12, ptr %13, align 8, !tbaa !11
  br label %5, !llvm.loop !102

14:                                               ; preds = %5
  %15 = load ptr, ptr %3, align 8, !tbaa !22
  %16 = load i64, ptr %15, align 8, !tbaa !11
  ret i64 %16
}

; Function Attrs: inlinehint nounwind sspstrong uwtable
define internal ptr @ossl_check_X509_sk_type(ptr noundef %0) #4 {
  %2 = alloca ptr, align 8
  store ptr %0, ptr %2, align 8, !tbaa !34
  %3 = load ptr, ptr %2, align 8, !tbaa !34
  ret ptr %3
}

; Function Attrs: nounwind sspstrong uwtable
define internal ptr @pkcs7_get_certs(i64 noundef %0) #0 {
  %2 = alloca i64, align 8
  %3 = alloca ptr, align 8
  %4 = alloca ptr, align 8
  %5 = alloca i32, align 4
  store i64 %0, ptr %2, align 8, !tbaa !11
  call void @llvm.lifetime.start.p0(i64 8, ptr %3) #16
  call void @llvm.lifetime.start.p0(i64 8, ptr %4) #16
  call void @llvm.lifetime.start.p0(i64 4, ptr %5) #16
  br label %6

6:                                                ; preds = %1
  %7 = load i64, ptr %2, align 8, !tbaa !11
  %8 = call ptr @rb_check_typeddata(i64 noundef %7, ptr noundef @ossl_pkcs7_type)
  store ptr %8, ptr %3, align 8, !tbaa !6
  %9 = load ptr, ptr %3, align 8, !tbaa !6
  %10 = icmp ne ptr %9, null
  br i1 %10, label %13, label %11

11:                                               ; preds = %6
  %12 = load i64, ptr @rb_eRuntimeError, align 8, !tbaa !11
  call void (i64, ptr, ...) @ossl_raise(i64 noundef %12, ptr noundef @.str.1) #17
  unreachable

13:                                               ; preds = %6
  br label %14

14:                                               ; preds = %13
  br label %15

15:                                               ; preds = %14
  %16 = load ptr, ptr %3, align 8, !tbaa !6
  %17 = getelementptr inbounds nuw %struct.pkcs7_st, ptr %16, i32 0, i32 4
  %18 = load ptr, ptr %17, align 8, !tbaa !24
  %19 = call i32 @OBJ_obj2nid(ptr noundef %18)
  store i32 %19, ptr %5, align 4, !tbaa !20
  %20 = load i32, ptr %5, align 4, !tbaa !20
  switch i32 %20, label %33 [
    i32 22, label %21
    i32 24, label %27
  ]

21:                                               ; preds = %15
  %22 = load ptr, ptr %3, align 8, !tbaa !6
  %23 = getelementptr inbounds nuw %struct.pkcs7_st, ptr %22, i32 0, i32 5
  %24 = load ptr, ptr %23, align 8, !tbaa !19
  %25 = getelementptr inbounds nuw %struct.pkcs7_signed_st, ptr %24, i32 0, i32 2
  %26 = load ptr, ptr %25, align 8, !tbaa !104
  store ptr %26, ptr %4, align 8, !tbaa !34
  br label %34

27:                                               ; preds = %15
  %28 = load ptr, ptr %3, align 8, !tbaa !6
  %29 = getelementptr inbounds nuw %struct.pkcs7_st, ptr %28, i32 0, i32 5
  %30 = load ptr, ptr %29, align 8, !tbaa !19
  %31 = getelementptr inbounds nuw %struct.pkcs7_signedandenveloped_st, ptr %30, i32 0, i32 2
  %32 = load ptr, ptr %31, align 8, !tbaa !106
  store ptr %32, ptr %4, align 8, !tbaa !34
  br label %34

33:                                               ; preds = %15
  store ptr null, ptr %4, align 8, !tbaa !34
  br label %34

34:                                               ; preds = %33, %27, %21
  %35 = load ptr, ptr %4, align 8, !tbaa !34
  call void @llvm.lifetime.end.p0(i64 4, ptr %5) #16
  call void @llvm.lifetime.end.p0(i64 8, ptr %4) #16
  call void @llvm.lifetime.end.p0(i64 8, ptr %3) #16
  ret ptr %35
}

; Function Attrs: nounwind sspstrong uwtable
define internal i64 @ossl_pkcs7_set_certificates(i64 noundef %0, i64 noundef %1) #0 {
  %3 = alloca i64, align 8
  %4 = alloca i64, align 8
  %5 = alloca ptr, align 8
  %6 = alloca ptr, align 8
  %7 = alloca i64, align 8
  store i64 %0, ptr %3, align 8, !tbaa !11
  store i64 %1, ptr %4, align 8, !tbaa !11
  call void @llvm.lifetime.start.p0(i64 8, ptr %5) #16
  call void @llvm.lifetime.start.p0(i64 8, ptr %6) #16
  %8 = load i64, ptr %3, align 8, !tbaa !11
  %9 = call ptr @pkcs7_get_certs(i64 noundef %8)
  store ptr %9, ptr %5, align 8, !tbaa !34
  %10 = load ptr, ptr %5, align 8, !tbaa !34
  %11 = icmp ne ptr %10, null
  br i1 %11, label %12, label %21

12:                                               ; preds = %2
  br label %13

13:                                               ; preds = %18, %12
  %14 = load ptr, ptr %5, align 8, !tbaa !34
  %15 = call ptr @ossl_check_X509_sk_type(ptr noundef %14)
  %16 = call ptr @OPENSSL_sk_pop(ptr noundef %15)
  store ptr %16, ptr %6, align 8, !tbaa !30
  %17 = icmp ne ptr %16, null
  br i1 %17, label %18, label %20

18:                                               ; preds = %13
  %19 = load ptr, ptr %6, align 8, !tbaa !30
  call void @X509_free(ptr noundef %19)
  br label %13, !llvm.loop !59

20:                                               ; preds = %13
  br label %21

21:                                               ; preds = %20, %2
  %22 = load i64, ptr %4, align 8, !tbaa !11
  %23 = call i64 @rbimpl_intern_const(ptr noundef @ossl_pkcs7_set_certificates.rbimpl_id, ptr noundef @.str.81) #19
  store i64 %23, ptr %7, align 8, !tbaa !11
  %24 = load i64, ptr %7, align 8, !tbaa !11
  %25 = load i64, ptr %3, align 8, !tbaa !11
  %26 = call i64 @rb_block_call(i64 noundef %22, i64 noundef %24, i32 noundef 0, ptr noundef null, ptr noundef @ossl_pkcs7_set_certs_i, i64 noundef %25)
  %27 = load i64, ptr %4, align 8, !tbaa !11
  call void @llvm.lifetime.end.p0(i64 8, ptr %6) #16
  call void @llvm.lifetime.end.p0(i64 8, ptr %5) #16
  ret i64 %27
}